; Function Attrs: mustprogress uwtable
define void @_ZN4cvc56parser15GetValueCommandC2ENS_4TermE(ptr noundef nonnull align 8 dereferenceable(64) initializes((0, 64)) %0, ptr noundef nonnull %1) unnamed_addr #3 align 2 personality ptr @__gxx_personality_v0 {
  %3 = getelementptr inbounds nuw i8, ptr %0, i64 8
  store ptr null, ptr %3, align 8, !tbaa !48
  store ptr getelementptr inbounds nuw inrange(-16, 56) (i8, ptr @_ZTVN4cvc56parser15GetValueCommandE, i64 16), ptr %0, align 8, !tbaa !6
  %4 = getelementptr inbounds nuw i8, ptr %0, i64 16
  tail call void @llvm.memset.p0.i64(ptr noundef nonnull align 8 dereferenceable(48) %4, i8 0, i64 48, i1 false)
  invoke void @_ZNSt6vectorIN4cvc54TermESaIS1_EE17_M_realloc_insertIJRKS1_EEEvN9__gnu_cxx17__normal_iteratorIPS1_S3_EEDpOT_(ptr noundef nonnull align 8 dereferenceable(24) %4, ptr null, ptr noundef nonnull align 8 dereferenceable(24) %1)
          to label %_ZNSt6vectorIN4cvc54TermESaIS1_EE9push_backERKS1_.exit unwind label %5

_ZNSt6vectorIN4cvc54TermESaIS1_EE9push_backERKS1_.exit: ; preds = %2
  ret void

5:                                                ; preds = %2
  %6 = landingpad { ptr, i32 }
          cleanup
  %7 = getelementptr inbounds nuw i8, ptr %0, i64 40
  tail call void @_ZNSt6vectorIN4cvc54TermESaIS1_EED2Ev(ptr noundef nonnull align 8 dereferenceable(24) %7) #33
  tail call void @_ZNSt6vectorIN4cvc54TermESaIS1_EED2Ev(ptr noundef nonnull align 8 dereferenceable(24) %4) #33
  store ptr getelementptr inbounds nuw inrange(-16, 56) (i8, ptr @_ZTVN4cvc56parser3CmdE, i64 16), ptr %0, align 8, !tbaa !6
  %8 = load ptr, ptr %3, align 8, !tbaa !48
  %.not.i2 = icmp eq ptr %8, null
  %9 = load ptr, ptr @_ZN4cvc56parser14CommandSuccess10s_instanceE, align 8
  %.not2.i = icmp eq ptr %8, %9
  %or.cond.i = select i1 %.not.i2, i1 true, i1 %.not2.i
  br i1 %or.cond.i, label %_ZN4cvc56parser3CmdD2Ev.exit, label %10

10:                                               ; preds = %5
  %11 = load ptr, ptr %8, align 8, !tbaa !6
  %12 = getelementptr inbounds nuw i8, ptr %11, i64 8
  %13 = load ptr, ptr %12, align 8
  tail call void %13(ptr noundef nonnull align 8 dereferenceable(8) %8) #33
  br label %_ZN4cvc56parser3CmdD2Ev.exit

_ZN4cvc56parser3CmdD2Ev.exit:                     ; preds = %5, %10
  resume { ptr, i32 } %6
}